target datalayout = "e-m:e-p270:32:32-p271:32:32-p272:64:64-i64:64-i128:128-f80:128-n8:16:32:64-S128"
target triple = "x86_64-pc-linux-gnu"

%"class.std::chrono::duration" = type { i64 }
%struct.LogTimeRecorder = type { i64, [10 x %"class.std::chrono::time_point.29"] }
%"class.std::chrono::time_point.29" = type { %"class.std::chrono::duration" }

; Function Attrs: mustprogress nounwind uwtable
define hidden noundef nonnull align 8 dereferenceable(8) ptr @_ZlsRSoR15LogTimeRecorder(ptr noundef nonnull align 8 dereferenceable(8) %0, ptr noundef nonnull align 8 dereferenceable(88) %1) #5 {
  %3 = alloca ptr, align 8
  %4 = alloca ptr, align 8
  %5 = alloca %"class.std::chrono::time_point.29", align 8
  store ptr %0, ptr %3, align 8
  store ptr %1, ptr %4, align 8
  %6 = call i64 @_ZNSt6chrono3_V212steady_clock3nowEv() #3
  %7 = getelementptr inbounds %"class.std::chrono::time_point.29", ptr %5, i32 0, i32 0
  %8 = getelementptr inbounds %"class.std::chrono::duration", ptr %7, i32 0, i32 0
  store i64 %6, ptr %8, align 8
  %9 = load ptr, ptr %4, align 8
  %10 = getelementptr inbounds %struct.LogTimeRecorder, ptr %9, i32 0, i32 1
  %11 = load ptr, ptr %4, align 8
  %12 = getelementptr inbounds %struct.LogTimeRecorder, ptr %11, i32 0, i32 0
  %13 = load i64, ptr %12, align 8
  %14 = add i64 %13, 1
  store i64 %14, ptr %12, align 8
  %15 = getelementptr inbounds [10 x %"class.std::chrono::time_point.29"], ptr %10, i64 0, i64 %13
  call void @llvm.memcpy.p0.p0.i64(ptr align 8 %15, ptr align 8 %5, i64 8, i1 false)
  %16 = load ptr, ptr %3, align 8
  ret ptr %16
}