; Function Attrs: mustprogress nounwind uwtable
define hidden noundef nonnull align 8 dereferenceable(8) ptr @_ZlsRSoR15LogTimeRecorder(ptr noundef nonnull readnone returned align 8 dereferenceable(8) %0, ptr nocapture noundef nonnull align 8 dereferenceable(88) %1) local_unnamed_addr #4 {
  %3 = tail call i64 @_ZNSt6chrono3_V212steady_clock3nowEv() #35
  %4 = getelementptr inbounds i8, ptr %1, i64 8
  %5 = load i64, ptr %1, align 8
  %6 = add i64 %5, 1
  store i64 %6, ptr %1, align 8
  %7 = getelementptr inbounds [10 x %"class.std::chrono::time_point.29"], ptr %4, i64 0, i64 %5
  store i64 %3, ptr %7, align 8
  ret ptr %0
}